; Function Attrs: null_pointer_is_valid sspstrong uwtable
define internal i32 @dissect_lcp_vendor_opt(ptr noundef %0, ptr noundef %1, ptr noundef %2, ptr readnone captures(none) %3) #1 {
  %5 = alloca ptr, align 8
  %6 = alloca ptr, align 8
  call void @llvm.lifetime.start.p0(i64 8, ptr nonnull %5) #8
  call void @llvm.lifetime.start.p0(i64 8, ptr nonnull %6) #8
  %7 = tail call i32 @tvb_reported_length(ptr noundef %0)
  %8 = load i32, ptr @proto_lcp_option_vendor, align 4
  %9 = load i32, ptr @ett_lcp_vendor_opt, align 4
  %10 = call fastcc zeroext i1 @dissect_lcp_var_opt(ptr noundef %0, ptr noundef %1, ptr noundef %2, i32 noundef %8, i32 noundef %9, i32 noundef 6, ptr noundef nonnull %5, ptr noundef nonnull %6)
  br i1 %10, label %11, label %22

11:                                               ; preds = %4
  %12 = load ptr, ptr %5, align 8
  %13 = load i32, ptr @hf_lcp_opt_oui, align 4
  %14 = tail call ptr @proto_tree_add_item(ptr noundef %12, i32 noundef %13, ptr noundef %0, i32 noundef 2, i32 noundef 3, i32 noundef 0)
  %15 = load i32, ptr @hf_lcp_opt_kind, align 4
  %16 = tail call ptr @proto_tree_add_item(ptr noundef %12, i32 noundef %15, ptr noundef %0, i32 noundef 5, i32 noundef 1, i32 noundef 0)
  %17 = icmp sgt i32 %7, 6
  br i1 %17, label %18, label %22

18:                                               ; preds = %11
  %19 = load i32, ptr @hf_lcp_opt_data, align 4
  %20 = add nsw i32 %7, -6
  %21 = tail call ptr @proto_tree_add_item(ptr noundef %12, i32 noundef %19, ptr noundef %0, i32 noundef 6, i32 noundef %20, i32 noundef 0)
  br label %22

22:                                               ; preds = %11, %18, %4
  %23 = tail call i32 @tvb_captured_length(ptr noundef %0)
  call void @llvm.lifetime.end.p0(i64 8, ptr nonnull %6) #8
  call void @llvm.lifetime.end.p0(i64 8, ptr nonnull %5) #8
  ret i32 %23
}